target datalayout = "e-m:e-p270:32:32-p271:32:32-p272:64:64-i64:64-i128:128-f80:128-n8:16:32:64-S128"
target triple = "x86_64-pc-linux-gnu"

%"class.absl::lts_20240722::log_internal::Voidify" = type { i8 }
%"class.absl::lts_20240722::log_internal::LogMessageFatal" = type { %"class.absl::lts_20240722::log_internal::LogMessage" }
%"class.absl::lts_20240722::log_internal::LogMessage" = type { %"class.absl::lts_20240722::base_internal::ErrnoSaver", %"class.std::unique_ptr" }
%"class.absl::lts_20240722::base_internal::ErrnoSaver" = type { i32 }
%"class.std::unique_ptr" = type { %"struct.std::__uniq_ptr_data" }
%"struct.std::__uniq_ptr_data" = type { %"class.std::__uniq_ptr_impl" }
%"class.std::__uniq_ptr_impl" = type { %"class.std::tuple" }
%"class.std::tuple" = type { %"struct.std::_Tuple_impl" }
%"struct.std::_Tuple_impl" = type { %"struct.std::_Head_base.1" }
%"struct.std::_Head_base.1" = type { ptr }
%"class.std::basic_string_view" = type { i64, ptr }
%struct.grpc_resolved_address = type { [128 x i8], i32 }
%struct.sockaddr_in6 = type { i16, i16, i32, %struct.in6_addr, i32 }
%struct.in6_addr = type { %union.anon }
%union.anon = type { [4 x i32] }
%struct.sockaddr_in = type { i16, i16, %struct.in_addr, [8 x i8] }
%struct.in_addr = type { i32 }

@.str = private unnamed_addr constant [132 x i8] c"generated/home/dtcxzyw/WorkSpace/Projects/compilers/llvm-opt-benchmark/bench/grpc/grpc/src/core/lib/address_utils/sockaddr_utils.cc\00", align 1
@.str.3 = private unnamed_addr constant [10 x i8] c"port >= 0\00", align 1
@.str.4 = private unnamed_addr constant [13 x i8] c"port < 65536\00", align 1

; Function Attrs: noinline noreturn nounwind uwtable
define linkonce_odr hidden void @__clang_call_terminate(ptr noundef %0) #17 comdat {
  %2 = call ptr @__cxa_begin_catch(ptr %0) #3
  call void @_ZSt9terminatev() #22
  unreachable
}

; Function Attrs: mustprogress nounwind uwtable
define linkonce_odr noundef i64 @_ZNSt11char_traitsIcE6lengthEPKc(ptr noundef %0) #7 comdat align 2 {
  %2 = alloca ptr, align 8
  store ptr %0, ptr %2, align 8, !tbaa !33
  %3 = load ptr, ptr %2, align 8, !tbaa !33
  %4 = call i64 @strlen(ptr noundef %3) #3
  ret i64 %4
}

; Function Attrs: mustprogress nounwind uwtable
define linkonce_odr void @_ZNKO4absl12lts_2024072212log_internal7VoidifyaaINS1_10LogMessageEEEvRKT_(ptr noundef nonnull align 1 dereferenceable(1) %0, ptr noundef nonnull align 8 dereferenceable(16) %1) #7 comdat align 2 {
  %3 = alloca ptr, align 8
  %4 = alloca ptr, align 8
  store ptr %0, ptr %3, align 8, !tbaa !27
  store ptr %1, ptr %4, align 8, !tbaa !29
  ret void
}

; Function Attrs: mustprogress nounwind uwtable
define linkonce_odr noundef nonnull align 8 dereferenceable(16) ptr @_ZN4absl12lts_2024072212log_internal10LogMessage14InternalStreamEv(ptr noundef nonnull align 8 dereferenceable(16) %0) #7 comdat align 2 {
  %2 = alloca ptr, align 8
  store ptr %0, ptr %2, align 8, !tbaa !29
  %3 = load ptr, ptr %2, align 8
  ret ptr %3
}

; Function Attrs: mustprogress nounwind uwtable
define linkonce_odr void @_ZNSt17basic_string_viewIcSt11char_traitsIcEEC2EPKc(ptr noundef nonnull align 8 dereferenceable(16) %0, ptr noundef nonnull %1) unnamed_addr #7 comdat align 2 personality ptr @__gxx_personality_v0 {
  %3 = alloca ptr, align 8
  %4 = alloca ptr, align 8
  store ptr %0, ptr %3, align 8, !tbaa !31
  store ptr %1, ptr %4, align 8, !tbaa !33
  %5 = load ptr, ptr %3, align 8
  %6 = getelementptr inbounds nuw %"class.std::basic_string_view", ptr %5, i32 0, i32 0
  %7 = load ptr, ptr %4, align 8, !tbaa !33
  %8 = invoke noundef i64 @_ZNSt11char_traitsIcE6lengthEPKc(ptr noundef %7)
          to label %9 unwind label %12

9:                                                ; preds = %2
  store i64 %8, ptr %6, align 8, !tbaa !35
  %10 = getelementptr inbounds nuw %"class.std::basic_string_view", ptr %5, i32 0, i32 1
  %11 = load ptr, ptr %4, align 8, !tbaa !33
  store ptr %11, ptr %10, align 8, !tbaa !38
  ret void

12:                                               ; preds = %2
  %13 = landingpad { ptr, i32 }
          catch ptr null
  %14 = extractvalue { ptr, i32 } %13, 0
  call void @__clang_call_terminate(ptr %14) #22
  unreachable
}

; Function Attrs: mustprogress uwtable
define void @_Z28grpc_sockaddr_make_wildcard6iP21grpc_resolved_address(i32 noundef %0, ptr noundef %1) #4 personality ptr @__gxx_personality_v0 {
  %3 = alloca i32, align 4
  %4 = alloca ptr, align 8
  %5 = alloca ptr, align 8
  %6 = alloca %"class.absl::lts_20240722::log_internal::Voidify", align 1
  %7 = alloca %"class.absl::lts_20240722::log_internal::LogMessageFatal", align 8
  %8 = alloca i1, align 1
  %9 = alloca %"class.std::basic_string_view", align 8
  %10 = alloca i1, align 1
  %11 = alloca ptr, align 8
  %12 = alloca i32, align 4
  %13 = alloca %"class.absl::lts_20240722::log_internal::Voidify", align 1
  %14 = alloca %"class.absl::lts_20240722::log_internal::LogMessageFatal", align 8
  %15 = alloca i1, align 1
  %16 = alloca %"class.std::basic_string_view", align 8
  %17 = alloca i1, align 1
  store i32 %0, ptr %3, align 4, !tbaa !43
  store ptr %1, ptr %4, align 8, !tbaa !3
  call void @llvm.lifetime.start.p0(i64 8, ptr %5) #3
  %18 = load ptr, ptr %4, align 8, !tbaa !3
  %19 = getelementptr inbounds nuw %struct.grpc_resolved_address, ptr %18, i32 0, i32 0
  %20 = getelementptr inbounds [128 x i8], ptr %19, i64 0, i64 0
  store ptr %20, ptr %5, align 8, !tbaa !15
  %21 = load i32, ptr %3, align 4, !tbaa !43
  %22 = icmp sge i32 %21, 0
  %23 = xor i1 %22, true
  %24 = zext i1 %23 to i64
  %25 = call i64 @llvm.expect.i64(i64 %24, i64 0)
  %26 = icmp ne i64 %25, 0
  call void @llvm.lifetime.start.p0(i64 1, ptr %6) #3
  store i1 false, ptr %8, align 1
  store i1 false, ptr %10, align 1
  br i1 %26, label %28, label %27

27:                                               ; preds = %2
  br label %36

28:                                               ; preds = %2
  call void @llvm.lifetime.start.p0(i64 16, ptr %7) #3
  store i1 true, ptr %8, align 1
  call void @_ZNSt17basic_string_viewIcSt11char_traitsIcEEC2EPKc(ptr noundef nonnull align 8 dereferenceable(16) %9, ptr noundef @.str.3) #3
  %29 = getelementptr inbounds nuw { i64, ptr }, ptr %9, i32 0, i32 0
  %30 = load i64, ptr %29, align 8
  %31 = getelementptr inbounds nuw { i64, ptr }, ptr %9, i32 0, i32 1
  %32 = load ptr, ptr %31, align 8
  call void @_ZN4absl12lts_2024072212log_internal15LogMessageFatalC1EPKciSt17basic_string_viewIcSt11char_traitsIcEE(ptr noundef nonnull align 8 dereferenceable(16) %7, ptr noundef @.str, i32 noundef 217, i64 %30, ptr %32) #21
  store i1 true, ptr %10, align 1
  %33 = invoke noundef nonnull align 8 dereferenceable(16) ptr @_ZN4absl12lts_2024072212log_internal10LogMessage14InternalStreamEv(ptr noundef nonnull align 8 dereferenceable(16) %7)
          to label %34 unwind label %39

34:                                               ; preds = %28
  invoke void @_ZNKO4absl12lts_2024072212log_internal7VoidifyaaINS1_10LogMessageEEEvRKT_(ptr noundef nonnull align 1 dereferenceable(1) %6, ptr noundef nonnull align 8 dereferenceable(16) %33)
          to label %35 unwind label %39

35:                                               ; preds = %34
  br label %36

36:                                               ; preds = %35, %27
  %37 = load i1, ptr %10, align 1
  br i1 %37, label %38, label %45

38:                                               ; preds = %36
  call void @_ZN4absl12lts_2024072212log_internal15LogMessageFatalD1Ev(ptr noundef nonnull align 8 dereferenceable(16) %7) #22
  unreachable

39:                                               ; preds = %34, %28
  %40 = landingpad { ptr, i32 }
          cleanup
  %41 = extractvalue { ptr, i32 } %40, 0
  store ptr %41, ptr %11, align 8
  %42 = extractvalue { ptr, i32 } %40, 1
  store i32 %42, ptr %12, align 4
  %43 = load i1, ptr %10, align 1
  br i1 %43, label %67, label %69

44:                                               ; No predecessors!
  br label %45

45:                                               ; preds = %44, %36
  %46 = load i1, ptr %8, align 1
  br i1 %46, label %47, label %48

47:                                               ; preds = %45
  call void @llvm.lifetime.end.p0(i64 16, ptr %7) #3
  br label %48

48:                                               ; preds = %47, %45
  call void @llvm.lifetime.end.p0(i64 1, ptr %6) #3
  %49 = load i32, ptr %3, align 4, !tbaa !43
  %50 = icmp slt i32 %49, 65536
  %51 = xor i1 %50, true
  %52 = zext i1 %51 to i64
  %53 = call i64 @llvm.expect.i64(i64 %52, i64 0)
  %54 = icmp ne i64 %53, 0
  call void @llvm.lifetime.start.p0(i64 1, ptr %13) #3
  store i1 false, ptr %15, align 1
  store i1 false, ptr %17, align 1
  br i1 %54, label %56, label %55

55:                                               ; preds = %48
  br label %64

56:                                               ; preds = %48
  call void @llvm.lifetime.start.p0(i64 16, ptr %14) #3
  store i1 true, ptr %15, align 1
  call void @_ZNSt17basic_string_viewIcSt11char_traitsIcEEC2EPKc(ptr noundef nonnull align 8 dereferenceable(16) %16, ptr noundef @.str.4) #3
  %57 = getelementptr inbounds nuw { i64, ptr }, ptr %16, i32 0, i32 0
  %58 = load i64, ptr %57, align 8
  %59 = getelementptr inbounds nuw { i64, ptr }, ptr %16, i32 0, i32 1
  %60 = load ptr, ptr %59, align 8
  call void @_ZN4absl12lts_2024072212log_internal15LogMessageFatalC1EPKciSt17basic_string_viewIcSt11char_traitsIcEE(ptr noundef nonnull align 8 dereferenceable(16) %14, ptr noundef @.str, i32 noundef 218, i64 %58, ptr %60) #21
  store i1 true, ptr %17, align 1
  %61 = invoke noundef nonnull align 8 dereferenceable(16) ptr @_ZN4absl12lts_2024072212log_internal10LogMessage14InternalStreamEv(ptr noundef nonnull align 8 dereferenceable(16) %14)
          to label %62 unwind label %73

62:                                               ; preds = %56
  invoke void @_ZNKO4absl12lts_2024072212log_internal7VoidifyaaINS1_10LogMessageEEEvRKT_(ptr noundef nonnull align 1 dereferenceable(1) %13, ptr noundef nonnull align 8 dereferenceable(16) %61)
          to label %63 unwind label %73

63:                                               ; preds = %62
  br label %64

64:                                               ; preds = %63, %55
  %65 = load i1, ptr %17, align 1
  br i1 %65, label %66, label %79

66:                                               ; preds = %64
  call void @_ZN4absl12lts_2024072212log_internal15LogMessageFatalD1Ev(ptr noundef nonnull align 8 dereferenceable(16) %14) #22
  unreachable

67:                                               ; preds = %39
  call void @_ZN4absl12lts_2024072212log_internal15LogMessageFatalD1Ev(ptr noundef nonnull align 8 dereferenceable(16) %7) #22
  unreachable

68:                                               ; No predecessors!
  br label %69

69:                                               ; preds = %68, %39
  %70 = load i1, ptr %8, align 1
  br i1 %70, label %71, label %72

71:                                               ; preds = %69
  call void @llvm.lifetime.end.p0(i64 16, ptr %7) #3
  br label %72

72:                                               ; preds = %71, %69
  call void @llvm.lifetime.end.p0(i64 1, ptr %6) #3
  br label %99

73:                                               ; preds = %62, %56
  %74 = landingpad { ptr, i32 }
          cleanup
  %75 = extractvalue { ptr, i32 } %74, 0
  store ptr %75, ptr %11, align 8
  %76 = extractvalue { ptr, i32 } %74, 1
  store i32 %76, ptr %12, align 4
  %77 = load i1, ptr %17, align 1
  br i1 %77, label %93, label %95

78:                                               ; No predecessors!
  br label %79

79:                                               ; preds = %78, %64
  %80 = load i1, ptr %15, align 1
  br i1 %80, label %81, label %82

81:                                               ; preds = %79
  call void @llvm.lifetime.end.p0(i64 16, ptr %14) #3
  br label %82

82:                                               ; preds = %81, %79
  call void @llvm.lifetime.end.p0(i64 1, ptr %13) #3
  %83 = load ptr, ptr %4, align 8, !tbaa !3
  call void @llvm.memset.p0.i64(ptr align 4 %83, i8 0, i64 132, i1 false)
  %84 = load ptr, ptr %5, align 8, !tbaa !15
  %85 = getelementptr inbounds nuw %struct.sockaddr_in6, ptr %84, i32 0, i32 0
  store i16 10, ptr %85, align 4, !tbaa !39
  %86 = load i32, ptr %3, align 4, !tbaa !43
  %87 = trunc i32 %86 to i16
  %88 = call noundef zeroext i16 @_Z10grpc_htonst(i16 noundef zeroext %87)
  %89 = load ptr, ptr %5, align 8, !tbaa !15
  %90 = getelementptr inbounds nuw %struct.sockaddr_in6, ptr %89, i32 0, i32 1
  store i16 %88, ptr %90, align 2, !tbaa !21
  %91 = load ptr, ptr %4, align 8, !tbaa !3
  %92 = getelementptr inbounds nuw %struct.grpc_resolved_address, ptr %91, i32 0, i32 1
  store i32 28, ptr %92, align 4, !tbaa !25
  call void @llvm.lifetime.end.p0(i64 8, ptr %5) #3
  ret void

93:                                               ; preds = %73
  call void @_ZN4absl12lts_2024072212log_internal15LogMessageFatalD1Ev(ptr noundef nonnull align 8 dereferenceable(16) %14) #22
  unreachable

94:                                               ; No predecessors!
  br label %95

95:                                               ; preds = %94, %73
  %96 = load i1, ptr %15, align 1
  br i1 %96, label %97, label %98

97:                                               ; preds = %95
  call void @llvm.lifetime.end.p0(i64 16, ptr %14) #3
  br label %98

98:                                               ; preds = %97, %95
  call void @llvm.lifetime.end.p0(i64 1, ptr %13) #3
  br label %99

99:                                               ; preds = %98, %72
  call void @llvm.lifetime.end.p0(i64 8, ptr %5) #3
  br label %100

100:                                              ; preds = %99
  %101 = load ptr, ptr %11, align 8
  %102 = load i32, ptr %12, align 4
  %103 = insertvalue { ptr, i32 } poison, ptr %101, 0
  %104 = insertvalue { ptr, i32 } %103, i32 %102, 1
  resume { ptr, i32 } %104
}

; Function Attrs: mustprogress uwtable
define void @_Z28grpc_sockaddr_make_wildcard4iP21grpc_resolved_address(i32 noundef %0, ptr noundef %1) #4 personality ptr @__gxx_personality_v0 {
  %3 = alloca i32, align 4
  %4 = alloca ptr, align 8
  %5 = alloca ptr, align 8
  %6 = alloca %"class.absl::lts_20240722::log_internal::Voidify", align 1
  %7 = alloca %"class.absl::lts_20240722::log_internal::LogMessageFatal", align 8
  %8 = alloca i1, align 1
  %9 = alloca %"class.std::basic_string_view", align 8
  %10 = alloca i1, align 1
  %11 = alloca ptr, align 8
  %12 = alloca i32, align 4
  %13 = alloca %"class.absl::lts_20240722::log_internal::Voidify", align 1
  %14 = alloca %"class.absl::lts_20240722::log_internal::LogMessageFatal", align 8
  %15 = alloca i1, align 1
  %16 = alloca %"class.std::basic_string_view", align 8
  %17 = alloca i1, align 1
  store i32 %0, ptr %3, align 4, !tbaa !43
  store ptr %1, ptr %4, align 8, !tbaa !3
  call void @llvm.lifetime.start.p0(i64 8, ptr %5) #3
  %18 = load ptr, ptr %4, align 8, !tbaa !3
  %19 = getelementptr inbounds nuw %struct.grpc_resolved_address, ptr %18, i32 0, i32 0
  %20 = getelementptr inbounds [128 x i8], ptr %19, i64 0, i64 0
  store ptr %20, ptr %5, align 8, !tbaa !10
  %21 = load i32, ptr %3, align 4, !tbaa !43
  %22 = icmp sge i32 %21, 0
  %23 = xor i1 %22, true
  %24 = zext i1 %23 to i64
  %25 = call i64 @llvm.expect.i64(i64 %24, i64 0)
  %26 = icmp ne i64 %25, 0
  call void @llvm.lifetime.start.p0(i64 1, ptr %6) #3
  store i1 false, ptr %8, align 1
  store i1 false, ptr %10, align 1
  br i1 %26, label %28, label %27

27:                                               ; preds = %2
  br label %36

28:                                               ; preds = %2
  call void @llvm.lifetime.start.p0(i64 16, ptr %7) #3
  store i1 true, ptr %8, align 1
  call void @_ZNSt17basic_string_viewIcSt11char_traitsIcEEC2EPKc(ptr noundef nonnull align 8 dereferenceable(16) %9, ptr noundef @.str.3) #3
  %29 = getelementptr inbounds nuw { i64, ptr }, ptr %9, i32 0, i32 0
  %30 = load i64, ptr %29, align 8
  %31 = getelementptr inbounds nuw { i64, ptr }, ptr %9, i32 0, i32 1
  %32 = load ptr, ptr %31, align 8
  call void @_ZN4absl12lts_2024072212log_internal15LogMessageFatalC1EPKciSt17basic_string_viewIcSt11char_traitsIcEE(ptr noundef nonnull align 8 dereferenceable(16) %7, ptr noundef @.str, i32 noundef 205, i64 %30, ptr %32) #21
  store i1 true, ptr %10, align 1
  %33 = invoke noundef nonnull align 8 dereferenceable(16) ptr @_ZN4absl12lts_2024072212log_internal10LogMessage14InternalStreamEv(ptr noundef nonnull align 8 dereferenceable(16) %7)
          to label %34 unwind label %39

34:                                               ; preds = %28
  invoke void @_ZNKO4absl12lts_2024072212log_internal7VoidifyaaINS1_10LogMessageEEEvRKT_(ptr noundef nonnull align 1 dereferenceable(1) %6, ptr noundef nonnull align 8 dereferenceable(16) %33)
          to label %35 unwind label %39

35:                                               ; preds = %34
  br label %36

36:                                               ; preds = %35, %27
  %37 = load i1, ptr %10, align 1
  br i1 %37, label %38, label %45

38:                                               ; preds = %36
  call void @_ZN4absl12lts_2024072212log_internal15LogMessageFatalD1Ev(ptr noundef nonnull align 8 dereferenceable(16) %7) #22
  unreachable

39:                                               ; preds = %34, %28
  %40 = landingpad { ptr, i32 }
          cleanup
  %41 = extractvalue { ptr, i32 } %40, 0
  store ptr %41, ptr %11, align 8
  %42 = extractvalue { ptr, i32 } %40, 1
  store i32 %42, ptr %12, align 4
  %43 = load i1, ptr %10, align 1
  br i1 %43, label %67, label %69

44:                                               ; No predecessors!
  br label %45

45:                                               ; preds = %44, %36
  %46 = load i1, ptr %8, align 1
  br i1 %46, label %47, label %48

47:                                               ; preds = %45
  call void @llvm.lifetime.end.p0(i64 16, ptr %7) #3
  br label %48

48:                                               ; preds = %47, %45
  call void @llvm.lifetime.end.p0(i64 1, ptr %6) #3
  %49 = load i32, ptr %3, align 4, !tbaa !43
  %50 = icmp slt i32 %49, 65536
  %51 = xor i1 %50, true
  %52 = zext i1 %51 to i64
  %53 = call i64 @llvm.expect.i64(i64 %52, i64 0)
  %54 = icmp ne i64 %53, 0
  call void @llvm.lifetime.start.p0(i64 1, ptr %13) #3
  store i1 false, ptr %15, align 1
  store i1 false, ptr %17, align 1
  br i1 %54, label %56, label %55

55:                                               ; preds = %48
  br label %64

56:                                               ; preds = %48
  call void @llvm.lifetime.start.p0(i64 16, ptr %14) #3
  store i1 true, ptr %15, align 1
  call void @_ZNSt17basic_string_viewIcSt11char_traitsIcEEC2EPKc(ptr noundef nonnull align 8 dereferenceable(16) %16, ptr noundef @.str.4) #3
  %57 = getelementptr inbounds nuw { i64, ptr }, ptr %16, i32 0, i32 0
  %58 = load i64, ptr %57, align 8
  %59 = getelementptr inbounds nuw { i64, ptr }, ptr %16, i32 0, i32 1
  %60 = load ptr, ptr %59, align 8
  call void @_ZN4absl12lts_2024072212log_internal15LogMessageFatalC1EPKciSt17basic_string_viewIcSt11char_traitsIcEE(ptr noundef nonnull align 8 dereferenceable(16) %14, ptr noundef @.str, i32 noundef 206, i64 %58, ptr %60) #21
  store i1 true, ptr %17, align 1
  %61 = invoke noundef nonnull align 8 dereferenceable(16) ptr @_ZN4absl12lts_2024072212log_internal10LogMessage14InternalStreamEv(ptr noundef nonnull align 8 dereferenceable(16) %14)
          to label %62 unwind label %73

62:                                               ; preds = %56
  invoke void @_ZNKO4absl12lts_2024072212log_internal7VoidifyaaINS1_10LogMessageEEEvRKT_(ptr noundef nonnull align 1 dereferenceable(1) %13, ptr noundef nonnull align 8 dereferenceable(16) %61)
          to label %63 unwind label %73

63:                                               ; preds = %62
  br label %64

64:                                               ; preds = %63, %55
  %65 = load i1, ptr %17, align 1
  br i1 %65, label %66, label %79

66:                                               ; preds = %64
  call void @_ZN4absl12lts_2024072212log_internal15LogMessageFatalD1Ev(ptr noundef nonnull align 8 dereferenceable(16) %14) #22
  unreachable

67:                                               ; preds = %39
  call void @_ZN4absl12lts_2024072212log_internal15LogMessageFatalD1Ev(ptr noundef nonnull align 8 dereferenceable(16) %7) #22
  unreachable

68:                                               ; No predecessors!
  br label %69

69:                                               ; preds = %68, %39
  %70 = load i1, ptr %8, align 1
  br i1 %70, label %71, label %72

71:                                               ; preds = %69
  call void @llvm.lifetime.end.p0(i64 16, ptr %7) #3
  br label %72

72:                                               ; preds = %71, %69
  call void @llvm.lifetime.end.p0(i64 1, ptr %6) #3
  br label %99

73:                                               ; preds = %62, %56
  %74 = landingpad { ptr, i32 }
          cleanup
  %75 = extractvalue { ptr, i32 } %74, 0
  store ptr %75, ptr %11, align 8
  %76 = extractvalue { ptr, i32 } %74, 1
  store i32 %76, ptr %12, align 4
  %77 = load i1, ptr %17, align 1
  br i1 %77, label %93, label %95

78:                                               ; No predecessors!
  br label %79

79:                                               ; preds = %78, %64
  %80 = load i1, ptr %15, align 1
  br i1 %80, label %81, label %82

81:                                               ; preds = %79
  call void @llvm.lifetime.end.p0(i64 16, ptr %14) #3
  br label %82

82:                                               ; preds = %81, %79
  call void @llvm.lifetime.end.p0(i64 1, ptr %13) #3
  %83 = load ptr, ptr %4, align 8, !tbaa !3
  call void @llvm.memset.p0.i64(ptr align 4 %83, i8 0, i64 132, i1 false)
  %84 = load ptr, ptr %5, align 8, !tbaa !10
  %85 = getelementptr inbounds nuw %struct.sockaddr_in, ptr %84, i32 0, i32 0
  store i16 2, ptr %85, align 4, !tbaa !17
  %86 = load i32, ptr %3, align 4, !tbaa !43
  %87 = trunc i32 %86 to i16
  %88 = call noundef zeroext i16 @_Z10grpc_htonst(i16 noundef zeroext %87)
  %89 = load ptr, ptr %5, align 8, !tbaa !10
  %90 = getelementptr inbounds nuw %struct.sockaddr_in, ptr %89, i32 0, i32 1
  store i16 %88, ptr %90, align 2, !tbaa !24
  %91 = load ptr, ptr %4, align 8, !tbaa !3
  %92 = getelementptr inbounds nuw %struct.grpc_resolved_address, ptr %91, i32 0, i32 1
  store i32 16, ptr %92, align 4, !tbaa !25
  call void @llvm.lifetime.end.p0(i64 8, ptr %5) #3
  ret void

93:                                               ; preds = %73
  call void @_ZN4absl12lts_2024072212log_internal15LogMessageFatalD1Ev(ptr noundef nonnull align 8 dereferenceable(16) %14) #22
  unreachable

94:                                               ; No predecessors!
  br label %95

95:                                               ; preds = %94, %73
  %96 = load i1, ptr %15, align 1
  br i1 %96, label %97, label %98

97:                                               ; preds = %95
  call void @llvm.lifetime.end.p0(i64 16, ptr %14) #3
  br label %98

98:                                               ; preds = %97, %95
  call void @llvm.lifetime.end.p0(i64 1, ptr %13) #3
  br label %99

99:                                               ; preds = %98, %72
  call void @llvm.lifetime.end.p0(i64 8, ptr %5) #3
  br label %100

100:                                              ; preds = %99
  %101 = load ptr, ptr %11, align 8
  %102 = load i32, ptr %12, align 4
  %103 = insertvalue { ptr, i32 } poison, ptr %101, 0
  %104 = insertvalue { ptr, i32 } %103, i32 %102, 1
  resume { ptr, i32 } %104
}

; Function Attrs: mustprogress uwtable
define void @_Z28grpc_sockaddr_make_wildcardsiP21grpc_resolved_addressS0_(i32 noundef %0, ptr noundef %1, ptr noundef %2) #4 {
  %4 = alloca i32, align 4
  %5 = alloca ptr, align 8
  %6 = alloca ptr, align 8
  store i32 %0, ptr %4, align 4, !tbaa !43
  store ptr %1, ptr %5, align 8, !tbaa !3
  store ptr %2, ptr %6, align 8, !tbaa !3
  %7 = load i32, ptr %4, align 4, !tbaa !43
  %8 = load ptr, ptr %5, align 8, !tbaa !3
  call void @_Z28grpc_sockaddr_make_wildcard4iP21grpc_resolved_address(i32 noundef %7, ptr noundef %8)
  %9 = load i32, ptr %4, align 4, !tbaa !43
  %10 = load ptr, ptr %6, align 8, !tbaa !3
  call void @_Z28grpc_sockaddr_make_wildcard6iP21grpc_resolved_address(i32 noundef %9, ptr noundef %10)
  ret void
}