; Function Attrs: mustprogress uwtable
define void @_Z28grpc_sockaddr_make_wildcardsiP21grpc_resolved_addressS0_(i32 noundef %0, ptr noundef writeonly captures(none) %1, ptr noundef writeonly captures(none) %2) local_unnamed_addr #3 personality ptr @__gxx_personality_v0 {
  %4 = alloca %"class.absl::lts_20240722::log_internal::LogMessageFatal", align 8
  %5 = alloca %"class.absl::lts_20240722::log_internal::LogMessageFatal", align 8
  %6 = icmp slt i32 %0, 0
  br i1 %6, label %7, label %.critedge.i, !prof !3

7:                                                ; preds = %3
  call void @llvm.lifetime.start.p0(i64 16, ptr nonnull %4) #23
  call void @_ZN4absl12lts_2024072212log_internal15LogMessageFatalC1EPKciSt17basic_string_viewIcSt11char_traitsIcEE(ptr noundef nonnull align 8 dereferenceable(16) %4, ptr noundef nonnull @.str, i32 noundef 205, i64 9, ptr nonnull @.str.3) #24
  call void @_ZN4absl12lts_2024072212log_internal15LogMessageFatalD1Ev(ptr noundef nonnull align 8 dereferenceable(16) %4) #25
  unreachable

.critedge.i:                                      ; preds = %3
  %8 = icmp samesign ugt i32 %0, 65535
  br i1 %8, label %9, label %_Z28grpc_sockaddr_make_wildcard6iP21grpc_resolved_address.exit, !prof !3

9:                                                ; preds = %.critedge.i
  call void @llvm.lifetime.start.p0(i64 16, ptr nonnull %5) #23
  call void @_ZN4absl12lts_2024072212log_internal15LogMessageFatalC1EPKciSt17basic_string_viewIcSt11char_traitsIcEE(ptr noundef nonnull align 8 dereferenceable(16) %5, ptr noundef nonnull @.str, i32 noundef 206, i64 12, ptr nonnull @.str.4) #24
  call void @_ZN4absl12lts_2024072212log_internal15LogMessageFatalD1Ev(ptr noundef nonnull align 8 dereferenceable(16) %5) #25
  unreachable

_Z28grpc_sockaddr_make_wildcard6iP21grpc_resolved_address.exit: ; preds = %.critedge.i
  tail call void @llvm.memset.p0.i64(ptr noundef nonnull align 4 dereferenceable(132) %1, i8 0, i64 132, i1 false)
  store i16 2, ptr %1, align 4, !tbaa !9
  %10 = trunc nuw i32 %0 to i16
  %11 = tail call noundef zeroext i16 @_Z10grpc_htonst(i16 noundef zeroext %10)
  %12 = getelementptr inbounds nuw i8, ptr %1, i64 2
  store i16 %11, ptr %12, align 2, !tbaa !16
  %13 = getelementptr inbounds nuw i8, ptr %1, i64 128
  store i32 16, ptr %13, align 4, !tbaa !17
  tail call void @llvm.memset.p0.i64(ptr noundef nonnull align 4 dereferenceable(132) %2, i8 0, i64 132, i1 false)
  store i16 10, ptr %2, align 4, !tbaa !19
  %14 = tail call noundef zeroext i16 @_Z10grpc_htonst(i16 noundef zeroext %10)
  %15 = getelementptr inbounds nuw i8, ptr %2, i64 2
  store i16 %14, ptr %15, align 2, !tbaa !13
  %16 = getelementptr inbounds nuw i8, ptr %2, i64 128
  store i32 28, ptr %16, align 4, !tbaa !17
  ret void
}